target datalayout = "e-m:e-p270:32:32-p271:32:32-p272:64:64-i64:64-i128:128-f80:128-n8:16:32:64-S128"
target triple = "x86_64-pc-linux-gnu"

@hf_nack_form = internal global i32 0, align 4
@hf_nack_flags = internal global i32 0, align 4
@hf_nack_flags_segment = internal global i32 0, align 4
@hf_nack_flags_block = internal global i32 0, align 4
@hf_nack_flags_info = internal global i32 0, align 4
@hf_nack_flags_object = internal global i32 0, align 4
@hf_nack_length = internal global i32 0, align 4
@ett_flags = internal global i32 0, align 4
@ett_nackdata = internal global i32 0, align 4
@.str.145 = private unnamed_addr constant [10 x i8] c"NACK Data\00", align 1

; Function Attrs: null_pointer_is_valid sspstrong uwtable
define internal i32 @dissect_nack_data(ptr noundef %0, ptr noundef %1, i32 noundef %2, ptr noundef %3) #0 {
  %5 = alloca ptr, align 8
  %6 = alloca ptr, align 8
  %7 = alloca i32, align 4
  %8 = alloca ptr, align 8
  %9 = alloca ptr, align 8
  %10 = alloca ptr, align 8
  %11 = alloca ptr, align 8
  %12 = alloca ptr, align 8
  %13 = alloca i16, align 2
  store ptr %0, ptr %5, align 8
  store ptr %1, ptr %6, align 8
  store i32 %2, ptr %7, align 4
  store ptr %3, ptr %8, align 8
  call void @llvm.lifetime.start.p0(i64 8, ptr %9) #8
  call void @llvm.lifetime.start.p0(i64 8, ptr %10) #8
  call void @llvm.lifetime.start.p0(i64 8, ptr %11) #8
  call void @llvm.lifetime.start.p0(i64 8, ptr %12) #8
  call void @llvm.lifetime.start.p0(i64 2, ptr %13) #8
  %14 = load ptr, ptr %5, align 8
  %15 = load ptr, ptr %6, align 8
  %16 = load i32, ptr %7, align 4
  %17 = load i32, ptr @ett_nackdata, align 4
  %18 = call ptr @proto_tree_add_subtree(ptr noundef %14, ptr noundef %15, i32 noundef %16, i32 noundef -1, i32 noundef %17, ptr noundef %9, ptr noundef @.str.145)
  store ptr %18, ptr %11, align 8
  %19 = load ptr, ptr %11, align 8
  %20 = load i32, ptr @hf_nack_form, align 4
  %21 = load ptr, ptr %6, align 8
  %22 = load i32, ptr %7, align 4
  %23 = call ptr @proto_tree_add_item(ptr noundef %19, i32 noundef %20, ptr noundef %21, i32 noundef %22, i32 noundef 1, i32 noundef 0)
  %24 = load i32, ptr %7, align 4
  %25 = add i32 %24, 1
  store i32 %25, ptr %7, align 4
  %26 = load ptr, ptr %11, align 8
  %27 = load i32, ptr @hf_nack_flags, align 4
  %28 = load ptr, ptr %6, align 8
  %29 = load i32, ptr %7, align 4
  %30 = call ptr @proto_tree_add_item(ptr noundef %26, i32 noundef %27, ptr noundef %28, i32 noundef %29, i32 noundef 1, i32 noundef 0)
  store ptr %30, ptr %10, align 8
  %31 = load ptr, ptr %10, align 8
  %32 = load i32, ptr @ett_flags, align 4
  %33 = call ptr @proto_item_add_subtree(ptr noundef %31, i32 noundef %32)
  store ptr %33, ptr %12, align 8
  %34 = load ptr, ptr %12, align 8
  %35 = load i32, ptr @hf_nack_flags_segment, align 4
  %36 = load ptr, ptr %6, align 8
  %37 = load i32, ptr %7, align 4
  %38 = call ptr @proto_tree_add_item(ptr noundef %34, i32 noundef %35, ptr noundef %36, i32 noundef %37, i32 noundef 1, i32 noundef 0)
  %39 = load ptr, ptr %12, align 8
  %40 = load i32, ptr @hf_nack_flags_block, align 4
  %41 = load ptr, ptr %6, align 8
  %42 = load i32, ptr %7, align 4
  %43 = call ptr @proto_tree_add_item(ptr noundef %39, i32 noundef %40, ptr noundef %41, i32 noundef %42, i32 noundef 1, i32 noundef 0)
  %44 = load ptr, ptr %12, align 8
  %45 = load i32, ptr @hf_nack_flags_info, align 4
  %46 = load ptr, ptr %6, align 8
  %47 = load i32, ptr %7, align 4
  %48 = call ptr @proto_tree_add_item(ptr noundef %44, i32 noundef %45, ptr noundef %46, i32 noundef %47, i32 noundef 1, i32 noundef 0)
  %49 = load ptr, ptr %12, align 8
  %50 = load i32, ptr @hf_nack_flags_object, align 4
  %51 = load ptr, ptr %6, align 8
  %52 = load i32, ptr %7, align 4
  %53 = call ptr @proto_tree_add_item(ptr noundef %49, i32 noundef %50, ptr noundef %51, i32 noundef %52, i32 noundef 1, i32 noundef 0)
  %54 = load i32, ptr %7, align 4
  %55 = add i32 %54, 1
  store i32 %55, ptr %7, align 4
  %56 = load ptr, ptr %6, align 8
  %57 = load i32, ptr %7, align 4
  %58 = call zeroext i16 @tvb_get_ntohs(ptr noundef %56, i32 noundef %57)
  store i16 %58, ptr %13, align 2
  %59 = load ptr, ptr %11, align 8
  %60 = load i32, ptr @hf_nack_length, align 4
  %61 = load ptr, ptr %6, align 8
  %62 = load i32, ptr %7, align 4
  %63 = call ptr @proto_tree_add_item(ptr noundef %59, i32 noundef %60, ptr noundef %61, i32 noundef %62, i32 noundef 2, i32 noundef 0)
  %64 = load i32, ptr %7, align 4
  %65 = add i32 %64, 2
  store i32 %65, ptr %7, align 4
  %66 = load ptr, ptr %9, align 8
  %67 = load i16, ptr %13, align 2
  %68 = zext i16 %67 to i32
  %69 = add i32 4, %68
  call void @proto_item_set_len(ptr noundef %66, i32 noundef %69)
  %70 = load i16, ptr %13, align 2
  %71 = zext i16 %70 to i32
  %72 = icmp sgt i32 %71, 4
  br i1 %72, label %73, label %79

73:                                               ; preds = %4
  %74 = load ptr, ptr %11, align 8
  %75 = load ptr, ptr %6, align 8
  %76 = load i32, ptr %7, align 4
  %77 = load ptr, ptr %8, align 8
  %78 = call i32 @dissect_feccode(ptr noundef %74, ptr noundef %75, i32 noundef %76, ptr noundef %77, i32 noundef 1)
  br label %79

79:                                               ; preds = %73, %4
  %80 = load i16, ptr %13, align 2
  %81 = zext i16 %80 to i32
  %82 = load i32, ptr %7, align 4
  %83 = add i32 %82, %81
  store i32 %83, ptr %7, align 4
  %84 = load i32, ptr %7, align 4
  call void @llvm.lifetime.end.p0(i64 2, ptr %13) #8
  call void @llvm.lifetime.end.p0(i64 8, ptr %12) #8
  call void @llvm.lifetime.end.p0(i64 8, ptr %11) #8
  call void @llvm.lifetime.end.p0(i64 8, ptr %10) #8
  call void @llvm.lifetime.end.p0(i64 8, ptr %9) #8
  ret i32 %84
}