; Function Attrs: null_pointer_is_valid sspstrong uwtable
define internal fastcc i32 @dissect_nack_data(ptr noundef %0, ptr noundef %1, i32 noundef %2, ptr noundef %3) unnamed_addr #0 {
  %5 = alloca ptr, align 8
  call void @llvm.lifetime.start.p0(i64 8, ptr nonnull %5) #8
  %6 = load i32, ptr @ett_nackdata, align 4
  %7 = call ptr @proto_tree_add_subtree(ptr noundef %0, ptr noundef %1, i32 noundef %2, i32 noundef -1, i32 noundef %6, ptr noundef nonnull %5, ptr noundef nonnull @.str.145)
  %8 = load i32, ptr @hf_nack_form, align 4
  %9 = call ptr @proto_tree_add_item(ptr noundef %7, i32 noundef %8, ptr noundef %1, i32 noundef %2, i32 noundef 1, i32 noundef 0)
  %10 = add i32 %2, 1
  %11 = load i32, ptr @hf_nack_flags, align 4
  %12 = call ptr @proto_tree_add_item(ptr noundef %7, i32 noundef %11, ptr noundef %1, i32 noundef %10, i32 noundef 1, i32 noundef 0)
  %13 = load i32, ptr @ett_flags, align 4
  %14 = call ptr @proto_item_add_subtree(ptr noundef %12, i32 noundef %13)
  %15 = load i32, ptr @hf_nack_flags_segment, align 4
  %16 = call ptr @proto_tree_add_item(ptr noundef %14, i32 noundef %15, ptr noundef %1, i32 noundef %10, i32 noundef 1, i32 noundef 0)
  %17 = load i32, ptr @hf_nack_flags_block, align 4
  %18 = call ptr @proto_tree_add_item(ptr noundef %14, i32 noundef %17, ptr noundef %1, i32 noundef %10, i32 noundef 1, i32 noundef 0)
  %19 = load i32, ptr @hf_nack_flags_info, align 4
  %20 = call ptr @proto_tree_add_item(ptr noundef %14, i32 noundef %19, ptr noundef %1, i32 noundef %10, i32 noundef 1, i32 noundef 0)
  %21 = load i32, ptr @hf_nack_flags_object, align 4
  %22 = call ptr @proto_tree_add_item(ptr noundef %14, i32 noundef %21, ptr noundef %1, i32 noundef %10, i32 noundef 1, i32 noundef 0)
  %23 = add i32 %2, 2
  %24 = call zeroext i16 @tvb_get_ntohs(ptr noundef %1, i32 noundef %23)
  %25 = load i32, ptr @hf_nack_length, align 4
  %26 = call ptr @proto_tree_add_item(ptr noundef %7, i32 noundef %25, ptr noundef %1, i32 noundef %23, i32 noundef 2, i32 noundef 0)
  %27 = add i32 %2, 4
  %28 = load ptr, ptr %5, align 8
  %29 = zext i16 %24 to i32
  %30 = add nuw nsw i32 %29, 4
  call void @proto_item_set_len(ptr noundef %28, i32 noundef %30)
  %31 = icmp ugt i16 %24, 4
  br i1 %31, label %32, label %34

32:                                               ; preds = %4
  %33 = call fastcc i32 @dissect_feccode(ptr noundef %7, ptr noundef %1, i32 noundef %27, ptr noundef %3, i32 noundef 1)
  br label %34

34:                                               ; preds = %32, %4
  %35 = add i32 %27, %29
  call void @llvm.lifetime.end.p0(i64 8, ptr nonnull %5) #8
  ret i32 %35
}